; Function Attrs: nounwind uwtable
define dso_local i64 @zslDeleteRangeByRank(ptr noundef captures(none) %0, i32 noundef %1, i32 noundef %2, ptr noundef %3) local_unnamed_addr #0 {
  %5 = alloca [32 x ptr], align 16
  call void @llvm.lifetime.start.p0(i64 256, ptr nonnull %5) #18
  %6 = load ptr, ptr %0, align 8, !tbaa !18
  %7 = getelementptr inbounds nuw i8, ptr %0, i64 24
  %8 = load i32, ptr %7, align 8, !tbaa !12
  %9 = icmp sgt i32 %8, 0
  br i1 %9, label %.preheader.lr.ph, label %._crit_edge

.preheader.lr.ph:                                 ; preds = %4
  %10 = zext i32 %1 to i64
  %11 = zext nneg i32 %8 to i64
  br label %.preheader

.preheader:                                       ; preds = %.preheader.lr.ph, %.critedge
  %indvars.iv = phi i64 [ %11, %.preheader.lr.ph ], [ %indvars.iv.next, %.critedge ]
  %.040 = phi ptr [ %6, %.preheader.lr.ph ], [ %.1, %.critedge ]
  %.03339 = phi i64 [ 0, %.preheader.lr.ph ], [ %.134, %.critedge ]
  %indvars.iv.next = add nsw i64 %indvars.iv, -1
  br label %12

12:                                               ; preds = %.preheader, %16
  %.134 = phi i64 [ %19, %16 ], [ %.03339, %.preheader ]
  %.1 = phi ptr [ %15, %16 ], [ %.040, %.preheader ]
  %13 = getelementptr inbounds nuw i8, ptr %.1, i64 24
  %14 = getelementptr inbounds [0 x %struct.zskiplistLevel], ptr %13, i64 0, i64 %indvars.iv.next
  %15 = load ptr, ptr %14, align 8, !tbaa !20
  %.not = icmp eq ptr %15, null
  br i1 %.not, label %.critedge, label %16

16:                                               ; preds = %12
  %17 = getelementptr inbounds nuw i8, ptr %14, i64 8
  %18 = load i64, ptr %17, align 8, !tbaa !27
  %19 = add i64 %18, %.134
  %20 = icmp ult i64 %19, %10
  br i1 %20, label %12, label %.critedge, !llvm.loop !70

.critedge:                                        ; preds = %12, %16
  %21 = getelementptr inbounds [32 x ptr], ptr %5, i64 0, i64 %indvars.iv.next
  store ptr %.1, ptr %21, align 8, !tbaa !29
  %22 = icmp sgt i64 %indvars.iv, 1
  br i1 %22, label %.preheader, label %._crit_edge, !llvm.loop !71

._crit_edge:                                      ; preds = %.critedge, %4
  %.033.lcssa = phi i64 [ 0, %4 ], [ %.134, %.critedge ]
  %.0.lcssa = phi ptr [ %6, %4 ], [ %.1, %.critedge ]
  %23 = getelementptr inbounds nuw i8, ptr %.0.lcssa, i64 24
  %24 = load ptr, ptr %23, align 8, !tbaa !20
  %25 = zext i32 %2 to i64
  %26 = icmp ne ptr %24, null
  %27 = icmp ult i64 %.033.lcssa, %25
  %28 = select i1 %26, i1 %27, i1 false
  br i1 %28, label %.lr.ph, label %._crit_edge47

.lr.ph:                                           ; preds = %._crit_edge
  %29 = getelementptr inbounds nuw i8, ptr %0, i64 8
  %30 = getelementptr inbounds nuw i8, ptr %0, i64 16
  br label %31

31:                                               ; preds = %.lr.ph, %zslDeleteNode.exit
  %.245 = phi ptr [ %24, %.lr.ph ], [ %33, %zslDeleteNode.exit ]
  %.03244 = phi i64 [ 0, %.lr.ph ], [ %80, %zslDeleteNode.exit ]
  %.235.in43 = phi i64 [ %.033.lcssa, %.lr.ph ], [ %.235, %zslDeleteNode.exit ]
  %.235 = add nuw nsw i64 %.235.in43, 1
  %32 = getelementptr inbounds nuw i8, ptr %.245, i64 24
  %33 = load ptr, ptr %32, align 8, !tbaa !20
  %34 = load i32, ptr %7, align 8, !tbaa !12
  %35 = icmp sgt i32 %34, 0
  br i1 %35, label %.lr.ph.i, label %._crit_edge.i

.lr.ph.i:                                         ; preds = %31
  %wide.trip.count.i = zext nneg i32 %34 to i64
  br label %36

36:                                               ; preds = %56, %.lr.ph.i
  %indvars.iv.i = phi i64 [ 0, %.lr.ph.i ], [ %indvars.iv.next.i, %56 ]
  %37 = getelementptr inbounds nuw ptr, ptr %5, i64 %indvars.iv.i
  %38 = load ptr, ptr %37, align 8, !tbaa !29
  %39 = getelementptr inbounds nuw i8, ptr %38, i64 24
  %40 = getelementptr inbounds nuw [0 x %struct.zskiplistLevel], ptr %39, i64 0, i64 %indvars.iv.i
  %41 = load ptr, ptr %40, align 8, !tbaa !20
  %42 = icmp eq ptr %41, %.245
  br i1 %42, label %43, label %52

43:                                               ; preds = %36
  %44 = getelementptr inbounds nuw [0 x %struct.zskiplistLevel], ptr %32, i64 0, i64 %indvars.iv.i
  %45 = getelementptr inbounds nuw i8, ptr %44, i64 8
  %46 = load i64, ptr %45, align 8, !tbaa !27
  %47 = add i64 %46, -1
  %48 = getelementptr inbounds nuw i8, ptr %40, i64 8
  %49 = load i64, ptr %48, align 8, !tbaa !27
  %50 = add i64 %47, %49
  store i64 %50, ptr %48, align 8, !tbaa !27
  %51 = load ptr, ptr %44, align 8, !tbaa !20
  store ptr %51, ptr %40, align 8, !tbaa !20
  br label %56

52:                                               ; preds = %36
  %53 = getelementptr inbounds nuw i8, ptr %40, i64 8
  %54 = load i64, ptr %53, align 8, !tbaa !27
  %55 = add i64 %54, -1
  store i64 %55, ptr %53, align 8, !tbaa !27
  br label %56

56:                                               ; preds = %52, %43
  %indvars.iv.next.i = add nuw nsw i64 %indvars.iv.i, 1
  %exitcond.not.i = icmp eq i64 %indvars.iv.next.i, %wide.trip.count.i
  br i1 %exitcond.not.i, label %._crit_edge.ithread-pre-split, label %36, !llvm.loop !34

._crit_edge.ithread-pre-split:                    ; preds = %56
  %.pr = load ptr, ptr %32, align 8, !tbaa !20
  br label %._crit_edge.i

._crit_edge.i:                                    ; preds = %._crit_edge.ithread-pre-split, %31
  %57 = phi ptr [ %.pr, %._crit_edge.ithread-pre-split ], [ %33, %31 ]
  %.not.i = icmp eq ptr %57, null
  %58 = getelementptr inbounds nuw i8, ptr %.245, i64 16
  %59 = load ptr, ptr %58, align 8, !tbaa !29
  br i1 %.not.i, label %62, label %60

60:                                               ; preds = %._crit_edge.i
  %61 = getelementptr inbounds nuw i8, ptr %57, i64 16
  store ptr %59, ptr %61, align 8, !tbaa !29
  br label %63

62:                                               ; preds = %._crit_edge.i
  store ptr %59, ptr %29, align 8, !tbaa !19
  br label %63

63:                                               ; preds = %62, %60
  %64 = icmp sgt i32 %34, 1
  br i1 %64, label %.lr.ph34.i, label %zslDeleteNode.exit

.lr.ph34.i:                                       ; preds = %63
  %65 = load ptr, ptr %0, align 8, !tbaa !18
  %66 = getelementptr inbounds nuw i8, ptr %65, i64 24
  %67 = zext nneg i32 %34 to i64
  br label %68

68:                                               ; preds = %72, %.lr.ph34.i
  %indvars.iv37.i = phi i64 [ %67, %.lr.ph34.i ], [ %indvars.iv.next38.i, %72 ]
  %indvars.iv.next38.i = add nsw i64 %indvars.iv37.i, -1
  %69 = getelementptr inbounds nuw [0 x %struct.zskiplistLevel], ptr %66, i64 0, i64 %indvars.iv.next38.i
  %70 = load ptr, ptr %69, align 8, !tbaa !20
  %71 = icmp eq ptr %70, null
  br i1 %71, label %72, label %zslDeleteNode.exit

72:                                               ; preds = %68
  %73 = trunc nuw nsw i64 %indvars.iv.next38.i to i32
  store i32 %73, ptr %7, align 8, !tbaa !12
  %74 = icmp samesign ugt i64 %indvars.iv37.i, 2
  br i1 %74, label %68, label %zslDeleteNode.exit, !llvm.loop !35

zslDeleteNode.exit:                               ; preds = %68, %72, %63
  %75 = load i64, ptr %30, align 8, !tbaa !17
  %76 = add i64 %75, -1
  store i64 %76, ptr %30, align 8, !tbaa !17
  %77 = load ptr, ptr %.245, align 8, !tbaa !9
  %78 = tail call i32 @dictDelete(ptr noundef %3, ptr noundef %77) #18
  %79 = load ptr, ptr %.245, align 8, !tbaa !9
  tail call void @sdsfree(ptr noundef %79) #18
  tail call void @zfree(ptr noundef nonnull %.245) #18
  %80 = add nuw nsw i64 %.03244, 1
  %81 = icmp ne ptr %33, null
  %82 = icmp ult i64 %.235, %25
  %83 = select i1 %81, i1 %82, i1 false
  br i1 %83, label %31, label %._crit_edge47, !llvm.loop !72

._crit_edge47:                                    ; preds = %zslDeleteNode.exit, %._crit_edge
  %.032.lcssa = phi i64 [ 0, %._crit_edge ], [ %80, %zslDeleteNode.exit ]
  call void @llvm.lifetime.end.p0(i64 256, ptr nonnull %5) #18
  ret i64 %.032.lcssa
}